target datalayout = "e-m:e-p270:32:32-p271:32:32-p272:64:64-i64:64-i128:128-f80:128-n8:16:32:64-S128"
target triple = "x86_64-pc-linux-gnu"

%struct.sentinelState = type { [41 x i8], i64, ptr, i32, i32, i64, i64, ptr, ptr, i32, i64, i32, ptr, ptr, i32, i32 }
%struct.sentinelRedisInstance = type { i32, ptr, ptr, i64, ptr, ptr, i64, i64, i64, i64, i64, i64, i64, i64, i64, ptr, i32, i64, i64, ptr, ptr, i32, i32, ptr, ptr, i64, i32, i32, i64, ptr, ptr, i32, i32, i64, ptr, i64, i64, i32, i64, i64, i64, i64, ptr, ptr, ptr, ptr }
%struct.sentinelAddr = type { ptr, ptr, i32 }
%struct.instanceLink = type { i32, i32, i32, ptr, ptr, i64, i64, i64, i64, i64, i64, i64, i64 }

@sentinel = dso_local global %struct.sentinelState zeroinitializer, align 8
@sentinel_ask_period = internal global i64 1000, align 8
@.str.354 = private unnamed_addr constant [2 x i8] c"*\00", align 1
@.str.410 = private unnamed_addr constant [40 x i8] c"%s is-master-down-by-addr %s %s %llu %s\00", align 1
@.str.411 = private unnamed_addr constant [9 x i8] c"SENTINEL\00", align 1

; Function Attrs: nounwind uwtable
define dso_local ptr @announceSentinelAddr(ptr noundef %0) #0 {
  %2 = alloca ptr, align 8
  store ptr %0, ptr %2, align 8, !tbaa !94
  %3 = load i32, ptr getelementptr inbounds nuw (%struct.sentinelState, ptr @sentinel, i32 0, i32 15), align 4, !tbaa !78
  %4 = icmp ne i32 %3, 0
  br i1 %4, label %5, label %9

5:                                                ; preds = %1
  %6 = load ptr, ptr %2, align 8, !tbaa !94
  %7 = getelementptr inbounds nuw %struct.sentinelAddr, ptr %6, i32 0, i32 0
  %8 = load ptr, ptr %7, align 8, !tbaa !95
  br label %13

9:                                                ; preds = %1
  %10 = load ptr, ptr %2, align 8, !tbaa !94
  %11 = getelementptr inbounds nuw %struct.sentinelAddr, ptr %10, i32 0, i32 1
  %12 = load ptr, ptr %11, align 8, !tbaa !97
  br label %13

13:                                               ; preds = %9, %5
  %14 = phi ptr [ %8, %5 ], [ %12, %9 ]
  ret ptr %14
}

; Function Attrs: nounwind uwtable
define dso_local ptr @sentinelInstanceMapCommand(ptr noundef %0, ptr noundef %1) #0 {
  %3 = alloca ptr, align 8
  %4 = alloca ptr, align 8
  %5 = alloca ptr, align 8
  %6 = alloca ptr, align 8
  store ptr %0, ptr %3, align 8, !tbaa !11
  store ptr %1, ptr %4, align 8, !tbaa !93
  call void @llvm.lifetime.start.p0(i64 8, ptr %5) #16
  %7 = load ptr, ptr %4, align 8, !tbaa !93
  %8 = call ptr @sdsnew(ptr noundef %7)
  store ptr %8, ptr %5, align 8, !tbaa !93
  %9 = load ptr, ptr %3, align 8, !tbaa !11
  %10 = getelementptr inbounds nuw %struct.sentinelRedisInstance, ptr %9, i32 0, i32 29
  %11 = load ptr, ptr %10, align 8, !tbaa !35
  %12 = icmp ne ptr %11, null
  br i1 %12, label %13, label %17

13:                                               ; preds = %2
  %14 = load ptr, ptr %3, align 8, !tbaa !11
  %15 = getelementptr inbounds nuw %struct.sentinelRedisInstance, ptr %14, i32 0, i32 29
  %16 = load ptr, ptr %15, align 8, !tbaa !35
  store ptr %16, ptr %3, align 8, !tbaa !11
  br label %17

17:                                               ; preds = %13, %2
  call void @llvm.lifetime.start.p0(i64 8, ptr %6) #16
  %18 = load ptr, ptr %3, align 8, !tbaa !11
  %19 = getelementptr inbounds nuw %struct.sentinelRedisInstance, ptr %18, i32 0, i32 15
  %20 = load ptr, ptr %19, align 8, !tbaa !33
  %21 = load ptr, ptr %5, align 8, !tbaa !93
  %22 = call ptr @dictFetchValue(ptr noundef %20, ptr noundef %21)
  store ptr %22, ptr %6, align 8, !tbaa !93
  %23 = load ptr, ptr %5, align 8, !tbaa !93
  call void @sdsfree(ptr noundef %23)
  %24 = load ptr, ptr %6, align 8, !tbaa !93
  %25 = icmp ne ptr %24, null
  br i1 %25, label %26, label %28

26:                                               ; preds = %17
  %27 = load ptr, ptr %6, align 8, !tbaa !93
  br label %30

28:                                               ; preds = %17
  %29 = load ptr, ptr %4, align 8, !tbaa !93
  br label %30

30:                                               ; preds = %28, %26
  %31 = phi ptr [ %27, %26 ], [ %29, %28 ]
  call void @llvm.lifetime.end.p0(i64 8, ptr %6) #16
  call void @llvm.lifetime.end.p0(i64 8, ptr %5) #16
  ret ptr %31
}

; Function Attrs: nounwind uwtable
define dso_local void @sentinelAskMasterStateToOtherSentinels(ptr noundef %0, i32 noundef %1) #0 {
  %3 = alloca ptr, align 8
  %4 = alloca i32, align 4
  %5 = alloca ptr, align 8
  %6 = alloca ptr, align 8
  %7 = alloca ptr, align 8
  %8 = alloca i64, align 8
  %9 = alloca [32 x i8], align 16
  %10 = alloca i32, align 4
  %11 = alloca i32, align 4
  store ptr %0, ptr %3, align 8, !tbaa !11
  store i32 %1, ptr %4, align 4, !tbaa !82
  call void @llvm.lifetime.start.p0(i64 8, ptr %5) #16
  call void @llvm.lifetime.start.p0(i64 8, ptr %6) #16
  %12 = load ptr, ptr %3, align 8, !tbaa !11
  %13 = getelementptr inbounds nuw %struct.sentinelRedisInstance, ptr %12, i32 0, i32 19
  %14 = load ptr, ptr %13, align 8, !tbaa !13
  %15 = call ptr @dictGetIterator(ptr noundef %14)
  store ptr %15, ptr %5, align 8, !tbaa !87
  br label %16

16:                                               ; preds = %111, %109, %2
  %17 = load ptr, ptr %5, align 8, !tbaa !87
  %18 = call ptr @dictNext(ptr noundef %17)
  store ptr %18, ptr %6, align 8, !tbaa !89
  %19 = icmp ne ptr %18, null
  br i1 %19, label %20, label %112

20:                                               ; preds = %16
  call void @llvm.lifetime.start.p0(i64 8, ptr %7) #16
  %21 = load ptr, ptr %6, align 8, !tbaa !89
  %22 = call ptr @dictGetVal(ptr noundef %21)
  store ptr %22, ptr %7, align 8, !tbaa !11
  call void @llvm.lifetime.start.p0(i64 8, ptr %8) #16
  %23 = call i64 @mstime()
  %24 = load ptr, ptr %7, align 8, !tbaa !11
  %25 = getelementptr inbounds nuw %struct.sentinelRedisInstance, ptr %24, i32 0, i32 8
  %26 = load i64, ptr %25, align 8, !tbaa !177
  %27 = sub nsw i64 %23, %26
  store i64 %27, ptr %8, align 8, !tbaa !119
  call void @llvm.lifetime.start.p0(i64 32, ptr %9) #16
  call void @llvm.lifetime.start.p0(i64 4, ptr %10) #16
  %28 = load i64, ptr %8, align 8, !tbaa !119
  %29 = load i64, ptr @sentinel_ask_period, align 8, !tbaa !119
  %30 = mul nsw i64 %29, 5
  %31 = icmp sgt i64 %28, %30
  br i1 %31, label %32, label %42

32:                                               ; preds = %20
  %33 = load ptr, ptr %7, align 8, !tbaa !11
  %34 = getelementptr inbounds nuw %struct.sentinelRedisInstance, ptr %33, i32 0, i32 0
  %35 = load i32, ptr %34, align 8, !tbaa !34
  %36 = and i32 %35, -33
  store i32 %36, ptr %34, align 8, !tbaa !34
  %37 = load ptr, ptr %7, align 8, !tbaa !11
  %38 = getelementptr inbounds nuw %struct.sentinelRedisInstance, ptr %37, i32 0, i32 34
  %39 = load ptr, ptr %38, align 8, !tbaa !28
  call void @sdsfree(ptr noundef %39)
  %40 = load ptr, ptr %7, align 8, !tbaa !11
  %41 = getelementptr inbounds nuw %struct.sentinelRedisInstance, ptr %40, i32 0, i32 34
  store ptr null, ptr %41, align 8, !tbaa !28
  br label %42

42:                                               ; preds = %32, %20
  %43 = load ptr, ptr %3, align 8, !tbaa !11
  %44 = getelementptr inbounds nuw %struct.sentinelRedisInstance, ptr %43, i32 0, i32 0
  %45 = load i32, ptr %44, align 8, !tbaa !34
  %46 = and i32 %45, 8
  %47 = icmp eq i32 %46, 0
  br i1 %47, label %48, label %49

48:                                               ; preds = %42
  store i32 2, ptr %11, align 4
  br label %109, !llvm.loop !321

49:                                               ; preds = %42
  %50 = load ptr, ptr %7, align 8, !tbaa !11
  %51 = getelementptr inbounds nuw %struct.sentinelRedisInstance, ptr %50, i32 0, i32 5
  %52 = load ptr, ptr %51, align 8, !tbaa !22
  %53 = getelementptr inbounds nuw %struct.instanceLink, ptr %52, i32 0, i32 1
  %54 = load i32, ptr %53, align 4, !tbaa !133
  %55 = icmp ne i32 %54, 0
  br i1 %55, label %56, label %57

56:                                               ; preds = %49
  store i32 2, ptr %11, align 4
  br label %109, !llvm.loop !321

57:                                               ; preds = %49
  %58 = load i32, ptr %4, align 4, !tbaa !82
  %59 = and i32 %58, 1
  %60 = icmp ne i32 %59, 0
  br i1 %60, label %70, label %61

61:                                               ; preds = %57
  %62 = call i64 @mstime()
  %63 = load ptr, ptr %7, align 8, !tbaa !11
  %64 = getelementptr inbounds nuw %struct.sentinelRedisInstance, ptr %63, i32 0, i32 8
  %65 = load i64, ptr %64, align 8, !tbaa !177
  %66 = sub nsw i64 %62, %65
  %67 = load i64, ptr @sentinel_ask_period, align 8, !tbaa !119
  %68 = icmp slt i64 %66, %67
  br i1 %68, label %69, label %70

69:                                               ; preds = %61
  store i32 2, ptr %11, align 4
  br label %109, !llvm.loop !321

70:                                               ; preds = %61, %57
  %71 = getelementptr inbounds [32 x i8], ptr %9, i64 0, i64 0
  %72 = load ptr, ptr %3, align 8, !tbaa !11
  %73 = getelementptr inbounds nuw %struct.sentinelRedisInstance, ptr %72, i32 0, i32 4
  %74 = load ptr, ptr %73, align 8, !tbaa !32
  %75 = getelementptr inbounds nuw %struct.sentinelAddr, ptr %74, i32 0, i32 2
  %76 = load i32, ptr %75, align 8, !tbaa !98
  %77 = sext i32 %76 to i64
  %78 = call i32 @ll2string(ptr noundef %71, i64 noundef 32, i64 noundef %77)
  %79 = load ptr, ptr %7, align 8, !tbaa !11
  %80 = getelementptr inbounds nuw %struct.sentinelRedisInstance, ptr %79, i32 0, i32 5
  %81 = load ptr, ptr %80, align 8, !tbaa !22
  %82 = getelementptr inbounds nuw %struct.instanceLink, ptr %81, i32 0, i32 3
  %83 = load ptr, ptr %82, align 8, !tbaa !135
  %84 = load ptr, ptr %7, align 8, !tbaa !11
  %85 = load ptr, ptr %7, align 8, !tbaa !11
  %86 = call ptr @sentinelInstanceMapCommand(ptr noundef %85, ptr noundef @.str.411)
  %87 = load ptr, ptr %3, align 8, !tbaa !11
  %88 = getelementptr inbounds nuw %struct.sentinelRedisInstance, ptr %87, i32 0, i32 4
  %89 = load ptr, ptr %88, align 8, !tbaa !32
  %90 = call ptr @announceSentinelAddr(ptr noundef %89)
  %91 = getelementptr inbounds [32 x i8], ptr %9, i64 0, i64 0
  %92 = load i64, ptr getelementptr inbounds nuw (%struct.sentinelState, ptr @sentinel, i32 0, i32 1), align 8, !tbaa !63
  %93 = load ptr, ptr %3, align 8, !tbaa !11
  %94 = getelementptr inbounds nuw %struct.sentinelRedisInstance, ptr %93, i32 0, i32 37
  %95 = load i32, ptr %94, align 8, !tbaa !193
  %96 = icmp sgt i32 %95, 0
  %97 = select i1 %96, ptr @sentinel, ptr @.str.354
  %98 = call i32 (ptr, ptr, ptr, ptr, ...) @redisAsyncCommand(ptr noundef %83, ptr noundef @sentinelReceiveIsMasterDownReply, ptr noundef %84, ptr noundef @.str.410, ptr noundef %86, ptr noundef %90, ptr noundef %91, i64 noundef %92, ptr noundef %97)
  store i32 %98, ptr %10, align 4, !tbaa !82
  %99 = load i32, ptr %10, align 4, !tbaa !82
  %100 = icmp eq i32 %99, 0
  br i1 %100, label %101, label %108

101:                                              ; preds = %70
  %102 = load ptr, ptr %7, align 8, !tbaa !11
  %103 = getelementptr inbounds nuw %struct.sentinelRedisInstance, ptr %102, i32 0, i32 5
  %104 = load ptr, ptr %103, align 8, !tbaa !22
  %105 = getelementptr inbounds nuw %struct.instanceLink, ptr %104, i32 0, i32 2
  %106 = load i32, ptr %105, align 8, !tbaa !134
  %107 = add nsw i32 %106, 1
  store i32 %107, ptr %105, align 8, !tbaa !134
  br label %108

108:                                              ; preds = %101, %70
  store i32 0, ptr %11, align 4
  br label %109

109:                                              ; preds = %108, %69, %56, %48
  call void @llvm.lifetime.end.p0(i64 4, ptr %10) #16
  call void @llvm.lifetime.end.p0(i64 32, ptr %9) #16
  call void @llvm.lifetime.end.p0(i64 8, ptr %8) #16
  call void @llvm.lifetime.end.p0(i64 8, ptr %7) #16
  %110 = load i32, ptr %11, align 4
  switch i32 %110, label %114 [
    i32 0, label %111
    i32 2, label %16
  ]

111:                                              ; preds = %109
  br label %16, !llvm.loop !321

112:                                              ; preds = %16
  %113 = load ptr, ptr %5, align 8, !tbaa !87
  call void @dictReleaseIterator(ptr noundef %113)
  call void @llvm.lifetime.end.p0(i64 8, ptr %6) #16
  call void @llvm.lifetime.end.p0(i64 8, ptr %5) #16
  ret void

114:                                              ; preds = %109
  unreachable
}