; Function Attrs: nounwind uwtable
define dso_local void @sentinelAskMasterStateToOtherSentinels(ptr noundef readonly captures(none) %0, i32 noundef %1) local_unnamed_addr #0 {
  %3 = alloca [32 x i8], align 16
  %4 = getelementptr inbounds nuw i8, ptr %0, i64 152
  %5 = load ptr, ptr %4, align 8, !tbaa !5
  %6 = tail call ptr @dictGetIterator(ptr noundef %5) #30
  %7 = tail call ptr @dictNext(ptr noundef %6) #30
  %.not23 = icmp eq ptr %7, null
  br i1 %.not23, label %._crit_edge, label %.lr.ph

.lr.ph:                                           ; preds = %2
  %8 = and i32 %1, 1
  %.not21 = icmp eq i32 %8, 0
  %9 = getelementptr inbounds nuw i8, ptr %0, i64 32
  %10 = getelementptr inbounds nuw i8, ptr %0, i64 272
  br label %11

11:                                               ; preds = %.lr.ph, %72
  %12 = phi ptr [ %7, %.lr.ph ], [ %73, %72 ]
  %13 = call ptr @dictGetVal(ptr noundef nonnull %12) #30
  %14 = call i64 @mstime() #30
  %15 = getelementptr inbounds nuw i8, ptr %13, i64 64
  %16 = load i64, ptr %15, align 8, !tbaa !153
  %17 = sub nsw i64 %14, %16
  call void @llvm.lifetime.start.p0(i64 32, ptr nonnull %3) #30
  %18 = load i64, ptr @sentinel_ask_period, align 8, !tbaa !107
  %19 = mul nsw i64 %18, 5
  %20 = icmp sgt i64 %17, %19
  br i1 %20, label %21, label %26

21:                                               ; preds = %11
  %22 = load i32, ptr %13, align 8, !tbaa !34
  %23 = and i32 %22, -33
  store i32 %23, ptr %13, align 8, !tbaa !34
  %24 = getelementptr inbounds nuw i8, ptr %13, i64 248
  %25 = load ptr, ptr %24, align 8, !tbaa !25
  call void @sdsfree(ptr noundef %25) #30
  store ptr null, ptr %24, align 8, !tbaa !25
  br label %26

26:                                               ; preds = %21, %11
  %27 = load i32, ptr %0, align 8, !tbaa !34
  %28 = and i32 %27, 8
  %29 = icmp eq i32 %28, 0
  br i1 %29, label %72, label %30, !llvm.loop !287

30:                                               ; preds = %26
  %31 = getelementptr inbounds nuw i8, ptr %13, i64 40
  %32 = load ptr, ptr %31, align 8, !tbaa !19
  %33 = getelementptr inbounds nuw i8, ptr %32, i64 4
  %34 = load i32, ptr %33, align 4, !tbaa !117
  %.not20 = icmp eq i32 %34, 0
  br i1 %.not20, label %35, label %72, !llvm.loop !287

35:                                               ; preds = %30
  br i1 %.not21, label %36, label %42

36:                                               ; preds = %35
  %37 = call i64 @mstime() #30
  %38 = load i64, ptr %15, align 8, !tbaa !153
  %39 = sub nsw i64 %37, %38
  %40 = load i64, ptr @sentinel_ask_period, align 8, !tbaa !107
  %41 = icmp slt i64 %39, %40
  br i1 %41, label %72, label %42, !llvm.loop !287

42:                                               ; preds = %36, %35
  %43 = load ptr, ptr %9, align 8, !tbaa !29
  %44 = getelementptr inbounds nuw i8, ptr %43, i64 16
  %45 = load i32, ptr %44, align 8, !tbaa !86
  %46 = sext i32 %45 to i64
  %47 = call i32 @ll2string(ptr noundef nonnull %3, i64 noundef 32, i64 noundef %46) #30
  %48 = load ptr, ptr %31, align 8, !tbaa !19
  %49 = getelementptr inbounds nuw i8, ptr %48, i64 16
  %50 = load ptr, ptr %49, align 8, !tbaa !124
  %51 = call ptr @sdsnew(ptr noundef nonnull @.str.411) #30
  %52 = getelementptr inbounds nuw i8, ptr %13, i64 216
  %53 = load ptr, ptr %52, align 8, !tbaa !35
  %.not.i = icmp eq ptr %53, null
  %spec.select.i = select i1 %.not.i, ptr %13, ptr %53
  %54 = getelementptr inbounds nuw i8, ptr %spec.select.i, i64 120
  %55 = load ptr, ptr %54, align 8, !tbaa !33
  %56 = call ptr @dictFetchValue(ptr noundef %55, ptr noundef %51) #30
  call void @sdsfree(ptr noundef %51) #30
  %.not10.i = icmp eq ptr %56, null
  %57 = select i1 %.not10.i, ptr @.str.411, ptr %56
  %58 = load ptr, ptr %9, align 8, !tbaa !29
  %59 = load i32, ptr getelementptr inbounds nuw (i8, ptr @sentinel, i64 148), align 4, !tbaa !88
  %.not.i22 = icmp eq i32 %59, 0
  %.in.idx.i = select i1 %.not.i22, i64 8, i64 0
  %.in.i = getelementptr inbounds nuw i8, ptr %58, i64 %.in.idx.i
  %60 = load ptr, ptr %.in.i, align 8, !tbaa !87
  %61 = load i64, ptr getelementptr inbounds nuw (i8, ptr @sentinel, i64 48), align 8, !tbaa !63
  %62 = load i32, ptr %10, align 8, !tbaa !169
  %63 = icmp sgt i32 %62, 0
  %64 = select i1 %63, ptr @sentinel, ptr @.str.354
  %65 = call i32 (ptr, ptr, ptr, ptr, ...) @redisAsyncCommand(ptr noundef %50, ptr noundef nonnull @sentinelReceiveIsMasterDownReply, ptr noundef nonnull %13, ptr noundef nonnull @.str.410, ptr noundef nonnull %57, ptr noundef %60, ptr noundef nonnull %3, i64 noundef %61, ptr noundef nonnull %64) #30
  %66 = icmp eq i32 %65, 0
  br i1 %66, label %67, label %72

67:                                               ; preds = %42
  %68 = load ptr, ptr %31, align 8, !tbaa !19
  %69 = getelementptr inbounds nuw i8, ptr %68, i64 8
  %70 = load i32, ptr %69, align 8, !tbaa !118
  %71 = add nsw i32 %70, 1
  store i32 %71, ptr %69, align 8, !tbaa !118
  br label %72

72:                                               ; preds = %42, %67, %36, %30, %26
  call void @llvm.lifetime.end.p0(i64 32, ptr nonnull %3) #30
  %73 = call ptr @dictNext(ptr noundef %6) #30
  %.not = icmp eq ptr %73, null
  br i1 %.not, label %._crit_edge, label %11

._crit_edge:                                      ; preds = %72, %2
  call void @dictReleaseIterator(ptr noundef %6) #30
  ret void
}